target datalayout = "e-m:e-p270:32:32-p271:32:32-p272:64:64-i64:64-i128:128-f80:128-n8:16:32:64-S128"
target triple = "x86_64-pc-linux-gnu"

%struct._packet_info = type { ptr, ptr, i32, i32, %struct.nstime_t, %struct.nstime_t, %struct.nstime_t, i8, ptr, ptr, ptr, ptr, %struct._address, %struct._address, %struct._address, %struct._address, %struct._address, %struct._address, i32, ptr, i8, [3 x i8], %struct.anon, i32, i32, i32, i32, ptr, i8, ptr, ptr, i16, i16, i32, i32, i16, i32, i32, ptr, ptr, ptr, i8, i8, i16, i16, i16, i32, i16, i16, ptr, ptr, ptr, ptr, ptr, i32, i32 }
%struct.nstime_t = type { i64, i32 }
%struct._address = type { i32, i32, ptr, ptr }
%struct.anon = type { i8, [3 x i8] }

@hf_gvcp_eventcmd_id = internal global i32 0, align 4
@hf_gvcp_eventcmd_error_id = internal global i32 0, align 4
@hf_gvcp_eventcmd_extid_length = internal global i32 0, align 4
@hf_gvcp_eventcmd_device_specific_id = internal global i32 0, align 4
@hf_gvcp_eventcmd_stream_channel_index = internal global i32 0, align 4
@hf_gvcp_eventcmd_block_id = internal global i32 0, align 4
@hf_gvcp_eventcmd_timestamp = internal global i32 0, align 4
@hf_gvcp_eventcmd_block_id_64bit_v2_0 = internal global i32 0, align 4
@hf_gvcp_eventcmd_data = internal global i32 0, align 4
@.str.754 = private unnamed_addr constant [13 x i8] c"[ID: 0x%04X]\00", align 1

; Function Attrs: null_pointer_is_valid sspstrong uwtable
define internal void @dissect_eventdata_cmd(ptr noundef %0, ptr noundef %1, ptr noundef %2, i32 noundef %3, i32 noundef %4) #0 {
  %6 = alloca ptr, align 8
  %7 = alloca ptr, align 8
  %8 = alloca ptr, align 8
  %9 = alloca i32, align 4
  %10 = alloca i32, align 4
  %11 = alloca i32, align 4
  %12 = alloca i32, align 4
  %13 = alloca i32, align 4
  %14 = alloca i32, align 4
  store ptr %0, ptr %6, align 8
  store ptr %1, ptr %7, align 8
  store ptr %2, ptr %8, align 8
  store i32 %3, ptr %9, align 4
  store i32 %4, ptr %10, align 4
  call void @llvm.lifetime.start.p0(i64 4, ptr %11) #7
  call void @llvm.lifetime.start.p0(i64 4, ptr %12) #7
  call void @llvm.lifetime.start.p0(i64 4, ptr %13) #7
  store i32 0, ptr %13, align 4
  %15 = load i32, ptr %9, align 4
  store i32 %15, ptr %12, align 4
  br label %16

16:                                               ; preds = %145, %5
  %17 = load ptr, ptr %7, align 8
  %18 = load i32, ptr %12, align 4
  %19 = call i32 @tvb_captured_length_remaining(ptr noundef %17, i32 noundef %18)
  %20 = icmp sgt i32 %19, 12
  br i1 %20, label %21, label %146

21:                                               ; preds = %16
  %22 = load ptr, ptr %7, align 8
  %23 = load i32, ptr %12, align 4
  %24 = add i32 %23, 2
  %25 = call zeroext i16 @tvb_get_ntohs(ptr noundef %22, i32 noundef %24)
  %26 = zext i16 %25 to i32
  store i32 %26, ptr %11, align 4
  %27 = load ptr, ptr %8, align 8
  %28 = getelementptr inbounds nuw %struct._packet_info, ptr %27, i32 0, i32 1
  %29 = load ptr, ptr %28, align 8
  %30 = load i32, ptr %11, align 4
  call void (ptr, i32, ptr, ...) @col_append_fstr(ptr noundef %29, i32 noundef 25, ptr noundef @.str.754, i32 noundef %30)
  %31 = load i32, ptr %10, align 4
  %32 = icmp ne i32 %31, 0
  br i1 %32, label %33, label %43

33:                                               ; preds = %21
  %34 = load ptr, ptr %6, align 8
  %35 = load i32, ptr @hf_gvcp_eventcmd_extid_length, align 4
  %36 = load ptr, ptr %7, align 8
  %37 = load i32, ptr %12, align 4
  %38 = call ptr @proto_tree_add_item(ptr noundef %34, i32 noundef %35, ptr noundef %36, i32 noundef %37, i32 noundef 2, i32 noundef 0)
  %39 = load ptr, ptr %7, align 8
  %40 = load i32, ptr %12, align 4
  %41 = call zeroext i16 @tvb_get_ntohs(ptr noundef %39, i32 noundef %40)
  %42 = zext i16 %41 to i32
  store i32 %42, ptr %13, align 4
  br label %43

43:                                               ; preds = %33, %21
  %44 = load i32, ptr %12, align 4
  %45 = add i32 %44, 2
  store i32 %45, ptr %12, align 4
  %46 = load i32, ptr %11, align 4
  %47 = icmp sge i32 %46, 0
  br i1 %47, label %48, label %57

48:                                               ; preds = %43
  %49 = load i32, ptr %11, align 4
  %50 = icmp sle i32 %49, 32768
  br i1 %50, label %51, label %57

51:                                               ; preds = %48
  %52 = load ptr, ptr %6, align 8
  %53 = load i32, ptr @hf_gvcp_eventcmd_id, align 4
  %54 = load ptr, ptr %7, align 8
  %55 = load i32, ptr %12, align 4
  %56 = call ptr @proto_tree_add_item(ptr noundef %52, i32 noundef %53, ptr noundef %54, i32 noundef %55, i32 noundef 2, i32 noundef 0)
  br label %83

57:                                               ; preds = %48, %43
  %58 = load i32, ptr %11, align 4
  %59 = icmp sge i32 %58, 32769
  br i1 %59, label %60, label %69

60:                                               ; preds = %57
  %61 = load i32, ptr %11, align 4
  %62 = icmp sle i32 %61, 36863
  br i1 %62, label %63, label %69

63:                                               ; preds = %60
  %64 = load ptr, ptr %6, align 8
  %65 = load i32, ptr @hf_gvcp_eventcmd_error_id, align 4
  %66 = load ptr, ptr %7, align 8
  %67 = load i32, ptr %12, align 4
  %68 = call ptr @proto_tree_add_item(ptr noundef %64, i32 noundef %65, ptr noundef %66, i32 noundef %67, i32 noundef 2, i32 noundef 0)
  br label %82

69:                                               ; preds = %60, %57
  %70 = load i32, ptr %11, align 4
  %71 = icmp sge i32 %70, 36864
  br i1 %71, label %72, label %81

72:                                               ; preds = %69
  %73 = load i32, ptr %11, align 4
  %74 = icmp sle i32 %73, 65535
  br i1 %74, label %75, label %81

75:                                               ; preds = %72
  %76 = load ptr, ptr %6, align 8
  %77 = load i32, ptr @hf_gvcp_eventcmd_device_specific_id, align 4
  %78 = load ptr, ptr %7, align 8
  %79 = load i32, ptr %12, align 4
  %80 = call ptr @proto_tree_add_item(ptr noundef %76, i32 noundef %77, ptr noundef %78, i32 noundef %79, i32 noundef 2, i32 noundef 0)
  br label %81

81:                                               ; preds = %75, %72, %69
  br label %82

82:                                               ; preds = %81, %63
  br label %83

83:                                               ; preds = %82, %51
  %84 = load i32, ptr %12, align 4
  %85 = add i32 %84, 2
  store i32 %85, ptr %12, align 4
  %86 = load ptr, ptr %6, align 8
  %87 = load i32, ptr @hf_gvcp_eventcmd_stream_channel_index, align 4
  %88 = load ptr, ptr %7, align 8
  %89 = load i32, ptr %12, align 4
  %90 = call ptr @proto_tree_add_item(ptr noundef %86, i32 noundef %87, ptr noundef %88, i32 noundef %89, i32 noundef 2, i32 noundef 0)
  %91 = load i32, ptr %12, align 4
  %92 = add i32 %91, 2
  store i32 %92, ptr %12, align 4
  %93 = load i32, ptr %10, align 4
  %94 = icmp eq i32 %93, 0
  br i1 %94, label %95, label %103

95:                                               ; preds = %83
  %96 = load ptr, ptr %6, align 8
  %97 = load i32, ptr @hf_gvcp_eventcmd_block_id, align 4
  %98 = load ptr, ptr %7, align 8
  %99 = load i32, ptr %12, align 4
  %100 = call ptr @proto_tree_add_item(ptr noundef %96, i32 noundef %97, ptr noundef %98, i32 noundef %99, i32 noundef 2, i32 noundef 0)
  %101 = load i32, ptr %12, align 4
  %102 = add i32 %101, 2
  store i32 %102, ptr %12, align 4
  br label %113

103:                                              ; preds = %83
  %104 = load i32, ptr %12, align 4
  %105 = add i32 %104, 2
  store i32 %105, ptr %12, align 4
  %106 = load ptr, ptr %6, align 8
  %107 = load i32, ptr @hf_gvcp_eventcmd_block_id_64bit_v2_0, align 4
  %108 = load ptr, ptr %7, align 8
  %109 = load i32, ptr %12, align 4
  %110 = call ptr @proto_tree_add_item(ptr noundef %106, i32 noundef %107, ptr noundef %108, i32 noundef %109, i32 noundef 8, i32 noundef 0)
  %111 = load i32, ptr %12, align 4
  %112 = add i32 %111, 8
  store i32 %112, ptr %12, align 4
  br label %113

113:                                              ; preds = %103, %95
  %114 = load ptr, ptr %6, align 8
  %115 = load i32, ptr @hf_gvcp_eventcmd_timestamp, align 4
  %116 = load ptr, ptr %7, align 8
  %117 = load i32, ptr %12, align 4
  %118 = call ptr @proto_tree_add_item(ptr noundef %114, i32 noundef %115, ptr noundef %116, i32 noundef %117, i32 noundef 8, i32 noundef 0)
  %119 = load i32, ptr %12, align 4
  %120 = add i32 %119, 8
  store i32 %120, ptr %12, align 4
  %121 = load i32, ptr %10, align 4
  %122 = icmp ne i32 %121, 0
  br i1 %122, label %123, label %139

123:                                              ; preds = %113
  %124 = load i32, ptr %13, align 4
  %125 = icmp sgt i32 %124, 24
  br i1 %125, label %126, label %138

126:                                              ; preds = %123
  %127 = load ptr, ptr %6, align 8
  %128 = load i32, ptr @hf_gvcp_eventcmd_data, align 4
  %129 = load ptr, ptr %7, align 8
  %130 = load i32, ptr %12, align 4
  %131 = load i32, ptr %13, align 4
  %132 = sub i32 %131, 24
  %133 = call ptr @proto_tree_add_item(ptr noundef %127, i32 noundef %128, ptr noundef %129, i32 noundef %130, i32 noundef %132, i32 noundef 0)
  %134 = load i32, ptr %13, align 4
  %135 = sub i32 %134, 24
  %136 = load i32, ptr %12, align 4
  %137 = add i32 %136, %135
  store i32 %137, ptr %12, align 4
  br label %138

138:                                              ; preds = %126, %123
  br label %145

139:                                              ; preds = %113
  %140 = load ptr, ptr %6, align 8
  %141 = load i32, ptr @hf_gvcp_eventcmd_data, align 4
  %142 = load ptr, ptr %7, align 8
  %143 = load i32, ptr %12, align 4
  %144 = call ptr @proto_tree_add_item(ptr noundef %140, i32 noundef %141, ptr noundef %142, i32 noundef %143, i32 noundef -1, i32 noundef 0)
  store i32 1, ptr %14, align 4
  br label %147

145:                                              ; preds = %138
  br label %16, !llvm.loop !13

146:                                              ; preds = %16
  store i32 0, ptr %14, align 4
  br label %147

147:                                              ; preds = %146, %139
  call void @llvm.lifetime.end.p0(i64 4, ptr %13) #7
  call void @llvm.lifetime.end.p0(i64 4, ptr %12) #7
  call void @llvm.lifetime.end.p0(i64 4, ptr %11) #7
  %148 = load i32, ptr %14, align 4
  switch i32 %148, label %150 [
    i32 0, label %149
    i32 1, label %149
  ]

149:                                              ; preds = %147, %147
  ret void

150:                                              ; preds = %147
  unreachable
}